; Function Attrs: mustprogress nofree norecurse nosync nounwind memory(readwrite, inaccessiblemem: none) uwtable
define void @_ZN11duckdb_zstd22ZSTD_ldm_skipSequencesEPNS_13rawSeqStore_tEmj(ptr noundef captures(none) %0, i64 noundef %1, i32 noundef %2) local_unnamed_addr #6 {
  %.not54 = icmp eq i64 %1, 0
  br i1 %.not54, label %.critedge, label %.lr.ph

.lr.ph:                                           ; preds = %3
  %4 = getelementptr inbounds nuw i8, ptr %0, i64 8
  %5 = getelementptr inbounds nuw i8, ptr %0, i64 24
  %6 = load i64, ptr %5, align 8, !tbaa !37
  %.promoted = load i64, ptr %4, align 8, !tbaa !70
  br label %7

7:                                                ; preds = %.lr.ph, %37
  %8 = phi i64 [ %.promoted, %.lr.ph ], [ %39, %37 ]
  %.02755 = phi i64 [ %1, %.lr.ph ], [ %38, %37 ]
  %9 = icmp ult i64 %8, %6
  br i1 %9, label %10, label %.critedge

10:                                               ; preds = %7
  %11 = load ptr, ptr %0, align 8, !tbaa !62
  %12 = getelementptr inbounds nuw %"struct.duckdb_zstd::rawSeq", ptr %11, i64 %8
  %13 = getelementptr inbounds nuw i8, ptr %12, i64 4
  %14 = load i32, ptr %13, align 4, !tbaa !63
  %15 = zext i32 %14 to i64
  %.not34 = icmp ugt i64 %.02755, %15
  br i1 %.not34, label %19, label %16

16:                                               ; preds = %10
  %17 = trunc nuw i64 %.02755 to i32
  %18 = sub i32 %14, %17
  store i32 %18, ptr %13, align 4, !tbaa !63
  br label %.critedge

19:                                               ; preds = %10
  %20 = sub nuw i64 %.02755, %15
  store i32 0, ptr %13, align 4, !tbaa !63
  %21 = getelementptr inbounds nuw i8, ptr %12, i64 8
  %22 = load i32, ptr %21, align 4, !tbaa !65
  %23 = zext i32 %22 to i64
  %24 = icmp ult i64 %20, %23
  br i1 %24, label %25, label %37

25:                                               ; preds = %19
  %26 = trunc nuw i64 %20 to i32
  %27 = sub i32 %22, %26
  store i32 %27, ptr %21, align 4, !tbaa !65
  %28 = icmp ult i32 %27, %2
  br i1 %28, label %29, label %.critedge

29:                                               ; preds = %25
  %30 = add nuw i64 %8, 1
  %31 = icmp ult i64 %30, %6
  br i1 %31, label %32, label %36

32:                                               ; preds = %29
  %33 = getelementptr inbounds nuw i8, ptr %12, i64 16
  %34 = load i32, ptr %33, align 4, !tbaa !63
  %35 = add i32 %34, %27
  store i32 %35, ptr %33, align 4, !tbaa !63
  br label %36

36:                                               ; preds = %32, %29
  store i64 %30, ptr %4, align 8, !tbaa !70
  br label %.critedge

37:                                               ; preds = %19
  %38 = sub nuw i64 %20, %23
  store i32 0, ptr %21, align 4, !tbaa !65
  %39 = add nuw i64 %8, 1
  store i64 %39, ptr %4, align 8, !tbaa !70
  %.not = icmp eq i64 %38, 0
  br i1 %.not, label %.critedge, label %7

.critedge:                                        ; preds = %7, %37, %3, %25, %36, %16
  ret void
}